target datalayout = "e-m:e-p270:32:32-p271:32:32-p272:64:64-i64:64-i128:128-f80:128-n8:16:32:64-S128"
target triple = "x86_64-pc-linux-gnu"

; Function Attrs: alwaysinline nounwind willreturn memory(none) uwtable
define internal i32 @av_clip_uintp2_c(i32 noundef %0, i32 noundef %1) #3 {
  %3 = alloca i32, align 4
  %4 = alloca i32, align 4
  %5 = alloca i32, align 4
  store i32 %0, ptr %4, align 4, !tbaa !9
  store i32 %1, ptr %5, align 4, !tbaa !9
  %6 = load i32, ptr %4, align 4, !tbaa !9
  %7 = load i32, ptr %5, align 4, !tbaa !9
  %8 = shl i32 1, %7
  %9 = sub i32 %8, 1
  %10 = xor i32 %9, -1
  %11 = and i32 %6, %10
  %12 = icmp ne i32 %11, 0
  br i1 %12, label %13, label %21

13:                                               ; preds = %2
  %14 = load i32, ptr %4, align 4, !tbaa !9
  %15 = xor i32 %14, -1
  %16 = ashr i32 %15, 31
  %17 = load i32, ptr %5, align 4, !tbaa !9
  %18 = shl i32 1, %17
  %19 = sub i32 %18, 1
  %20 = and i32 %16, %19
  store i32 %20, ptr %3, align 4
  br label %23

21:                                               ; preds = %2
  %22 = load i32, ptr %4, align 4, !tbaa !9
  store i32 %22, ptr %3, align 4
  br label %23

23:                                               ; preds = %21, %13
  %24 = load i32, ptr %3, align 4
  ret i32 %24
}

; Function Attrs: nounwind uwtable
define internal void @avg_12(ptr noundef %0, i64 noundef %1, ptr noundef %2, ptr noundef %3, i32 noundef %4, i32 noundef %5) #0 {
  %7 = alloca ptr, align 8
  %8 = alloca i64, align 8
  %9 = alloca ptr, align 8
  %10 = alloca ptr, align 8
  %11 = alloca i32, align 4
  %12 = alloca i32, align 4
  %13 = alloca ptr, align 8
  %14 = alloca i64, align 8
  %15 = alloca i32, align 4
  %16 = alloca i32, align 4
  %17 = alloca i32, align 4
  %18 = alloca i32, align 4
  %19 = alloca i32, align 4
  store ptr %0, ptr %7, align 8, !tbaa !144
  store i64 %1, ptr %8, align 8, !tbaa !146
  store ptr %2, ptr %9, align 8, !tbaa !142
  store ptr %3, ptr %10, align 8, !tbaa !142
  store i32 %4, ptr %11, align 4, !tbaa !9
  store i32 %5, ptr %12, align 4, !tbaa !9
  call void @llvm.lifetime.start.p0(i64 8, ptr %13) #8
  %20 = load ptr, ptr %7, align 8, !tbaa !144
  store ptr %20, ptr %13, align 8, !tbaa !142
  call void @llvm.lifetime.start.p0(i64 8, ptr %14) #8
  %21 = load i64, ptr %8, align 8, !tbaa !146
  %22 = udiv i64 %21, 2
  store i64 %22, ptr %14, align 8, !tbaa !146
  call void @llvm.lifetime.start.p0(i64 4, ptr %15) #8
  store i32 3, ptr %15, align 4, !tbaa !9
  call void @llvm.lifetime.start.p0(i64 4, ptr %16) #8
  store i32 4, ptr %16, align 4, !tbaa !9
  call void @llvm.lifetime.start.p0(i64 4, ptr %17) #8
  store i32 0, ptr %17, align 4, !tbaa !9
  br label %23

23:                                               ; preds = %67, %6
  %24 = load i32, ptr %17, align 4, !tbaa !9
  %25 = load i32, ptr %12, align 4, !tbaa !9
  %26 = icmp slt i32 %24, %25
  br i1 %26, label %28, label %27

27:                                               ; preds = %23
  store i32 2, ptr %18, align 4
  call void @llvm.lifetime.end.p0(i64 4, ptr %17) #8
  br label %70

28:                                               ; preds = %23
  call void @llvm.lifetime.start.p0(i64 4, ptr %19) #8
  store i32 0, ptr %19, align 4, !tbaa !9
  br label %29

29:                                               ; preds = %56, %28
  %30 = load i32, ptr %19, align 4, !tbaa !9
  %31 = load i32, ptr %11, align 4, !tbaa !9
  %32 = icmp slt i32 %30, %31
  br i1 %32, label %34, label %33

33:                                               ; preds = %29
  store i32 5, ptr %18, align 4
  call void @llvm.lifetime.end.p0(i64 4, ptr %19) #8
  br label %59

34:                                               ; preds = %29
  %35 = load ptr, ptr %9, align 8, !tbaa !142
  %36 = load i32, ptr %19, align 4, !tbaa !9
  %37 = sext i32 %36 to i64
  %38 = getelementptr inbounds i16, ptr %35, i64 %37
  %39 = load i16, ptr %38, align 2, !tbaa !148
  %40 = sext i16 %39 to i32
  %41 = load ptr, ptr %10, align 8, !tbaa !142
  %42 = load i32, ptr %19, align 4, !tbaa !9
  %43 = sext i32 %42 to i64
  %44 = getelementptr inbounds i16, ptr %41, i64 %43
  %45 = load i16, ptr %44, align 2, !tbaa !148
  %46 = sext i16 %45 to i32
  %47 = add nsw i32 %40, %46
  %48 = add nsw i32 %47, 4
  %49 = ashr i32 %48, 3
  %50 = call i32 @av_clip_uintp2_c(i32 noundef %49, i32 noundef 12) #9
  %51 = trunc i32 %50 to i16
  %52 = load ptr, ptr %13, align 8, !tbaa !142
  %53 = load i32, ptr %19, align 4, !tbaa !9
  %54 = sext i32 %53 to i64
  %55 = getelementptr inbounds i16, ptr %52, i64 %54
  store i16 %51, ptr %55, align 2, !tbaa !148
  br label %56

56:                                               ; preds = %34
  %57 = load i32, ptr %19, align 4, !tbaa !9
  %58 = add nsw i32 %57, 1
  store i32 %58, ptr %19, align 4, !tbaa !9
  br label %29, !llvm.loop !204

59:                                               ; preds = %33
  %60 = load ptr, ptr %9, align 8, !tbaa !142
  %61 = getelementptr inbounds i16, ptr %60, i64 128
  store ptr %61, ptr %9, align 8, !tbaa !142
  %62 = load ptr, ptr %10, align 8, !tbaa !142
  %63 = getelementptr inbounds i16, ptr %62, i64 128
  store ptr %63, ptr %10, align 8, !tbaa !142
  %64 = load i64, ptr %14, align 8, !tbaa !146
  %65 = load ptr, ptr %13, align 8, !tbaa !142
  %66 = getelementptr inbounds i16, ptr %65, i64 %64
  store ptr %66, ptr %13, align 8, !tbaa !142
  br label %67

67:                                               ; preds = %59
  %68 = load i32, ptr %17, align 4, !tbaa !9
  %69 = add nsw i32 %68, 1
  store i32 %69, ptr %17, align 4, !tbaa !9
  br label %23, !llvm.loop !205

70:                                               ; preds = %27
  call void @llvm.lifetime.end.p0(i64 4, ptr %16) #8
  call void @llvm.lifetime.end.p0(i64 4, ptr %15) #8
  call void @llvm.lifetime.end.p0(i64 8, ptr %14) #8
  call void @llvm.lifetime.end.p0(i64 8, ptr %13) #8
  ret void
}