; Function Attrs: nofree norecurse nosync nounwind memory(argmem: readwrite) uwtable
define internal void @avg_12(ptr noundef writeonly captures(none) %0, i64 noundef %1, ptr noundef readonly captures(none) %2, ptr noundef readonly captures(none) %3, i32 noundef %4, i32 noundef %5) #2 {
  %7 = lshr i64 %1, 1
  %8 = icmp sgt i32 %5, 0
  %9 = icmp sgt i32 %4, 0
  %or.cond = and i1 %8, %9
  br i1 %or.cond, label %.preheader.us.preheader, label %._crit_edge26

.preheader.us.preheader:                          ; preds = %6
  %wide.trip.count = zext nneg i32 %4 to i64
  br label %.preheader.us

.preheader.us:                                    ; preds = %.preheader.us.preheader, %._crit_edge.us
  %.01725.us = phi i32 [ %27, %._crit_edge.us ], [ 0, %.preheader.us.preheader ]
  %.01824.us = phi ptr [ %24, %._crit_edge.us ], [ %2, %.preheader.us.preheader ]
  %.01923.us = phi ptr [ %25, %._crit_edge.us ], [ %3, %.preheader.us.preheader ]
  %.02022.us = phi ptr [ %26, %._crit_edge.us ], [ %0, %.preheader.us.preheader ]
  br label %10

10:                                               ; preds = %.preheader.us, %10
  %indvars.iv = phi i64 [ 0, %.preheader.us ], [ %indvars.iv.next, %10 ]
  %11 = getelementptr inbounds nuw i16, ptr %.01824.us, i64 %indvars.iv
  %12 = load i16, ptr %11, align 2, !tbaa !124
  %13 = sext i16 %12 to i32
  %14 = getelementptr inbounds nuw i16, ptr %.01923.us, i64 %indvars.iv
  %15 = load i16, ptr %14, align 2, !tbaa !124
  %16 = sext i16 %15 to i32
  %17 = add nsw i32 %13, 4
  %18 = add nsw i32 %17, %16
  %19 = ashr i32 %18, 3
  %20 = tail call i32 @llvm.smax.i32(i32 %19, i32 0)
  %21 = tail call i32 @llvm.umin.i32(i32 %20, i32 4095)
  %22 = trunc nuw nsw i32 %21 to i16
  %23 = getelementptr inbounds nuw i16, ptr %.02022.us, i64 %indvars.iv
  store i16 %22, ptr %23, align 2, !tbaa !124
  %indvars.iv.next = add nuw nsw i64 %indvars.iv, 1
  %exitcond.not = icmp eq i64 %indvars.iv.next, %wide.trip.count
  br i1 %exitcond.not, label %._crit_edge.us, label %10, !llvm.loop !188

._crit_edge.us:                                   ; preds = %10
  %24 = getelementptr inbounds nuw i8, ptr %.01824.us, i64 256
  %25 = getelementptr inbounds nuw i8, ptr %.01923.us, i64 256
  %26 = getelementptr inbounds nuw i16, ptr %.02022.us, i64 %7
  %27 = add nuw nsw i32 %.01725.us, 1
  %exitcond29.not = icmp eq i32 %27, %5
  br i1 %exitcond29.not, label %._crit_edge26, label %.preheader.us, !llvm.loop !189

._crit_edge26:                                    ; preds = %._crit_edge.us, %6
  ret void
}